
main.elf:     file format elf32-littlearm


Disassembly of section .text:

00000000 <main-0xc4>:
   0:	10000400 	andne	r0, r0, r0, lsl #8
   4:	00000111 	andeq	r0, r0, r1, lsl r1
	...

000000c4 <main>:
  c4:	b580      	push	{r7, lr}
  c6:	b082      	sub	sp, #8
  c8:	af00      	add	r7, sp, #0
  ca:	4b0d      	ldr	r3, [pc, #52]	; (100 <main+0x3c>)
  cc:	2241      	movs	r2, #65	; 0x41
  ce:	4252      	negs	r2, r2
  d0:	601a      	str	r2, [r3, #0]
  d2:	4b0c      	ldr	r3, [pc, #48]	; (104 <main+0x40>)
  d4:	4a0b      	ldr	r2, [pc, #44]	; (104 <main+0x40>)
  d6:	6812      	ldr	r2, [r2, #0]
  d8:	2104      	movs	r1, #4
  da:	430a      	orrs	r2, r1
  dc:	601a      	str	r2, [r3, #0]
  de:	4b0a      	ldr	r3, [pc, #40]	; (108 <main+0x44>)
  e0:	4a09      	ldr	r2, [pc, #36]	; (108 <main+0x44>)
  e2:	6812      	ldr	r2, [r2, #0]
  e4:	2104      	movs	r1, #4
  e6:	430a      	orrs	r2, r1
  e8:	601a      	str	r2, [r3, #0]
  ea:	4b08      	ldr	r3, [pc, #32]	; (10c <main+0x48>)
  ec:	607b      	str	r3, [r7, #4]
  ee:	e002      	b.n	f6 <main+0x32>
  f0:	687b      	ldr	r3, [r7, #4]
  f2:	3b01      	subs	r3, #1
  f4:	607b      	str	r3, [r7, #4]
  f6:	687b      	ldr	r3, [r7, #4]
  f8:	2b00      	cmp	r3, #0
  fa:	dcf9      	bgt.n	f0 <main+0x2c>
  fc:	e7ef      	b.n	de <main+0x1a>
  fe:	46c0      	nop			; (mov r8, r8)
 100:	4000c1c0 	andmi	ip, r0, r0, asr #3
 104:	a0002000 	andge	r2, r0, r0
 108:	a0002300 	andge	r2, r0, r0, lsl #6
 10c:	0003a980 	andeq	sl, r3, r0, lsl #19

00000110 <Reset_Handler>:
 110:	e7d8      	b.n	c4 <main>
 112:	46c0      	nop			; (mov r8, r8)
